target datalayout = "e-m:e-p270:32:32-p271:32:32-p272:64:64-i64:64-i128:128-f80:128-n8:16:32:64-S128"
target triple = "x86_64-pc-linux-gnu"

@.str = private unnamed_addr constant [58 x i8] c"../openssl/providers/implementations/ciphers/cipher_rc2.c\00", align 1
@__func__.rc2_magic_to_keybits = private unnamed_addr constant [21 x i8] c"rc2_magic_to_keybits\00", align 1

; Function Attrs: nounwind uwtable
define internal i32 @rc2_magic_to_keybits(i32 noundef %0) #0 {
  %2 = alloca i32, align 4
  %3 = alloca i32, align 4
  store i32 %0, ptr %3, align 4, !tbaa !19
  %4 = load i32, ptr %3, align 4, !tbaa !19
  switch i32 %4, label %8 [
    i32 58, label %5
    i32 120, label %6
    i32 160, label %7
  ]

5:                                                ; preds = %1
  store i32 128, ptr %2, align 4
  br label %9

6:                                                ; preds = %1
  store i32 64, ptr %2, align 4
  br label %9

7:                                                ; preds = %1
  store i32 40, ptr %2, align 4
  br label %9

8:                                                ; preds = %1
  call void @ERR_new()
  call void @ERR_set_debug(ptr noundef @.str, i32 noundef 84, ptr noundef @__func__.rc2_magic_to_keybits)
  call void (i32, i32, ptr, ...) @ERR_set_error(i32 noundef 57, i32 noundef 153, ptr noundef null)
  store i32 0, ptr %2, align 4
  br label %9

9:                                                ; preds = %8, %7, %6, %5
  %10 = load i32, ptr %2, align 4
  ret i32 %10
}