; Function Attrs: nounwind uwtable
define internal fastcc range(i32 0, 129) i32 @rc2_magic_to_keybits(i32 noundef %0) unnamed_addr #0 {
  switch i32 %0, label %4 [
    i32 58, label %5
    i32 120, label %2
    i32 160, label %3
  ]

2:                                                ; preds = %1
  br label %5

3:                                                ; preds = %1
  br label %5

4:                                                ; preds = %1
  tail call void @ERR_new() #5
  tail call void @ERR_set_debug(ptr noundef nonnull @.str, i32 noundef 84, ptr noundef nonnull @__func__.rc2_magic_to_keybits) #5
  tail call void (i32, i32, ptr, ...) @ERR_set_error(i32 noundef 57, i32 noundef 153, ptr noundef null) #5
  br label %5

5:                                                ; preds = %1, %4, %3, %2
  %.0 = phi i32 [ 0, %4 ], [ 40, %3 ], [ 64, %2 ], [ 128, %1 ]
  ret i32 %.0
}